Certificate:
    Data:
        Version: 3 (0x2)
        Serial Number:
            86:f1:ff:82:96:ac:23:31:8e:e6:1c:dd:28:25:3d:b0
        Signature Algorithm: sha256WithRSAEncryption
        Issuer: CN=Easy-RSA CA
        Validity
            Not Before: Mar  7 04:37:21 2022 GMT
            Not After : Jun  9 04:37:21 2024 GMT
        Subject: CN=192.168.1.204
        Subject Public Key Info:
            Public Key Algorithm: rsaEncryption
                RSA Public-Key: (2048 bit)
                Modulus:
                    00:ea:88:8d:ff:95:59:40:e9:ec:6e:fd:24:41:51:
                    19:97:23:32:b0:61:c5:c1:4b:18:6d:b5:f6:b5:a2:
                    47:13:a4:a1:61:a5:4d:f4:c9:e0:40:52:15:5e:9e:
                    e1:25:01:c1:6f:96:a4:07:d1:fe:42:89:f3:6f:6e:
                    e4:3d:58:3e:ea:fb:85:6e:c8:26:6d:a1:8e:5d:6a:
                    53:71:2f:2a:e2:9d:e8:16:5b:56:55:c5:67:bb:7c:
                    af:b2:69:72:11:5b:57:a9:9c:15:cc:4d:3a:26:da:
                    29:68:82:d6:17:43:e0:0d:a4:50:6e:c4:21:dd:16:
                    94:8c:64:7e:99:70:ac:ce:ee:03:a9:d2:0f:23:48:
                    63:67:fa:59:3f:1d:76:38:29:df:09:60:1b:52:72:
                    c2:d2:13:43:2a:e9:86:3b:c9:59:32:13:25:03:db:
                    7a:e8:05:4b:75:1c:2b:13:b5:f4:12:57:cb:11:8e:
                    db:5e:01:c0:6c:74:bb:f3:35:c9:22:86:bf:bf:51:
                    f4:07:b9:19:37:17:0d:15:ed:ba:7f:fa:87:5f:5a:
                    61:42:78:4d:c8:25:e5:f9:7d:b7:8d:cb:aa:4c:51:
                    91:29:1e:be:4b:d5:5a:fb:4a:f9:e0:63:48:12:ed:
                    b7:b1:60:a9:7c:24:79:c0:dd:2e:7c:72:db:b6:c5:
                    b8:91
                Exponent: 65537 (0x10001)
        X509v3 extensions:
            X509v3 Basic Constraints: 
                CA:FALSE
            X509v3 Subject Key Identifier: 
                CD:DB:1E:DD:64:9B:C9:71:6B:C5:C9:DF:03:EB:99:80:D2:C9:E9:30
            X509v3 Authority Key Identifier: 
                keyid:66:F5:AB:7D:67:D1:BB:09:8D:B1:37:2C:81:14:C9:AC:B5:0F:49:C3
                DirName:/CN=Easy-RSA CA
                serial:71:77:DC:B3:E0:05:48:AD:93:D5:AA:02:56:61:3C:9B:58:94:0F:AE

            X509v3 Extended Key Usage: 
                TLS Web Server Authentication
            X509v3 Key Usage: 
                Digital Signature, Key Encipherment
            X509v3 Subject Alternative Name: 
                IP Address:192.168.1.204
    Signature Algorithm: sha256WithRSAEncryption
         58:06:0c:e6:94:3f:df:dc:39:1e:d7:e5:d0:db:bd:15:c5:4c:
         15:a9:38:04:d9:8d:3d:6a:40:25:56:9c:38:ff:55:ad:1f:ed:
         e3:0f:16:e0:83:77:b3:ac:d6:39:dc:4e:14:87:e4:ab:0e:ae:
         2c:c3:1d:9b:b6:a6:87:36:42:50:33:48:13:00:0a:1f:89:66:
         6b:aa:dc:db:7c:1c:1d:a5:c3:e6:cf:2a:01:09:08:73:49:83:
         a6:a7:86:a9:20:c4:65:83:32:99:4b:86:0d:4b:bb:91:d1:d8:
         ed:53:a1:1e:e9:ba:15:83:a9:7e:fb:d4:7b:2c:0d:ab:2b:21:
         bb:25:3f:0f:ff:a3:b5:8d:13:0f:5a:6a:69:40:1a:fd:f8:e5:
         a9:2c:58:d9:2f:f8:52:a1:c8:7d:5e:6c:3f:d8:7f:bf:67:4d:
         84:e9:04:11:b4:11:7b:cc:fe:eb:44:e6:cc:fe:78:96:d3:68:
         bf:22:7d:40:ca:a3:89:59:55:3f:ee:cf:60:7b:a8:13:1f:b0:
         17:c2:60:61:1a:2b:d9:50:6d:06:82:b8:6c:23:33:34:aa:0f:
         f8:76:c4:b7:8d:5f:8a:60:8a:d9:cc:b0:f6:17:35:64:c2:8b:
         39:b5:14:ff:de:a5:d3:50:94:58:32:d8:08:fc:a2:06:5a:d9:
         68:dc:4b:81
-----BEGIN CERTIFICATE-----
MIIDbTCCAlWgAwIBAgIRAIbx/4KWrCMxjuYc3SglPbAwDQYJKoZIhvcNAQELBQAw
FjEUMBIGA1UEAwwLRWFzeS1SU0EgQ0EwHhcNMjIwMzA3MDQzNzIxWhcNMjQwNjA5
MDQzNzIxWjAYMRYwFAYDVQQDDA0xOTIuMTY4LjEuMjA0MIIBIjANBgkqhkiG9w0B
AQEFAAOCAQ8AMIIBCgKCAQEA6oiN/5VZQOnsbv0kQVEZlyMysGHFwUsYbbX2taJH
E6ShYaVN9MngQFIVXp7hJQHBb5akB9H+Qonzb27kPVg+6vuFbsgmbaGOXWpTcS8q
4p3oFltWVcVnu3yvsmlyEVtXqZwVzE06JtopaILWF0PgDaRQbsQh3RaUjGR+mXCs
zu4DqdIPI0hjZ/pZPx12OCnfCWAbUnLC0hNDKumGO8lZMhMlA9t66AVLdRwrE7X0
ElfLEY7bXgHAbHS78zXJIoa/v1H0B7kZNxcNFe26f/qHX1phQnhNyCXl+X23jcuq
TFGRKR6+S9Va+0r54GNIEu23sWCpfCR5wN0ufHLbtsW4kQIDAQABo4GzMIGwMAkG
A1UdEwQCMAAwHQYDVR0OBBYEFM3bHt1km8lxa8XJ3wPrmYDSyekwMFEGA1UdIwRK
MEiAFGb1q31n0bsJjbE3LIEUyay1D0nDoRqkGDAWMRQwEgYDVQQDDAtFYXN5LVJT
QSBDQYIUcXfcs+AFSK2T1aoCVmE8m1iUD64wEwYDVR0lBAwwCgYIKwYBBQUHAwEw
CwYDVR0PBAQDAgWgMA8GA1UdEQQIMAaHBMCoAcwwDQYJKoZIhvcNAQELBQADggEB
AFgGDOaUP9/cOR7X5dDbvRXFTBWpOATZjT1qQCVWnDj/Va0f7eMPFuCDd7Os1jnc
ThSH5KsOrizDHZu2poc2QlAzSBMACh+JZmuq3Nt8HB2lw+bPKgEJCHNJg6anhqkg
xGWDMplLhg1Lu5HR2O1ToR7puhWDqX771HssDasrIbslPw//o7WNEw9aamlAGv34
5aksWNkv+FKhyH1ebD/Yf79nTYTpBBG0EXvM/utE5sz+eJbTaL8ifUDKo4lZVT/u
z2B7qBMfsBfCYGEaK9lQbQaCuGwjMzSqD/h2xLeNX4pgitnMsPYXNWTCizm1FP/e
pdNQlFgy2Aj8ogZa2WjcS4E=
-----END CERTIFICATE-----
